target datalayout = "e-m:e-p270:32:32-p271:32:32-p272:64:64-i64:64-i128:128-f80:128-n8:16:32:64-S128"
target triple = "x86_64-pc-linux-gnu"

%struct.PyVarObject = type { %struct._object, i64 }
%struct._object = type { i64, ptr }
%struct._typeobject = type { %struct.PyVarObject, ptr, i64, i64, ptr, i64, ptr, ptr, ptr, ptr, ptr, ptr, ptr, ptr, ptr, ptr, ptr, ptr, ptr, i64, ptr, ptr, ptr, ptr, i64, ptr, ptr, ptr, ptr, ptr, ptr, ptr, ptr, ptr, i64, ptr, ptr, ptr, ptr, ptr, ptr, ptr, ptr, ptr, ptr, ptr, i32, ptr, ptr }
%struct.PyTupleObject = type { %struct.PyVarObject, [1 x ptr] }
%struct.PyListObject = type { %struct.PyVarObject, ptr, i64 }

@PyTuple_Type = external global %struct._typeobject, align 8
@PyList_Type = external global %struct._typeobject, align 8

; Function Attrs: inlinehint mustprogress nounwind uwtable
define internal noundef i32 @_ZL11_Py_IS_TYPEPK7_objectPK11_typeobject(ptr noundef %0, ptr noundef %1) #9 {
  %3 = alloca ptr, align 8
  %4 = alloca ptr, align 8
  store ptr %0, ptr %3, align 8
  store ptr %1, ptr %4, align 8
  %5 = load ptr, ptr %3, align 8
  %6 = getelementptr inbounds nuw %struct._object, ptr %5, i32 0, i32 1
  %7 = load ptr, ptr %6, align 8
  %8 = load ptr, ptr %4, align 8
  %9 = icmp eq ptr %7, %8
  %10 = zext i1 %9 to i32
  ret i32 %10
}

; Function Attrs: mustprogress nounwind uwtable
define noundef ptr @_ZN8nanobind6detail17seq_get_with_sizeEP7_objectmPS2_(ptr noundef %0, i64 noundef %1, ptr noundef %2) #4 personality ptr @__gxx_personality_v0 {
  %4 = alloca ptr, align 8
  %5 = alloca i64, align 8
  %6 = alloca ptr, align 8
  %7 = alloca ptr, align 8
  %8 = alloca ptr, align 8
  store ptr %0, ptr %4, align 8
  store i64 %1, ptr %5, align 8
  store ptr %2, ptr %6, align 8
  call void @llvm.lifetime.start.p0(i64 8, ptr %7) #20
  store ptr null, ptr %7, align 8
  call void @llvm.lifetime.start.p0(i64 8, ptr %8) #20
  store ptr null, ptr %8, align 8
  %9 = load ptr, ptr %4, align 8
  %10 = invoke noundef i32 @_ZL11_Py_IS_TYPEPK7_objectPK11_typeobject(ptr noundef %9, ptr noundef @PyTuple_Type)
          to label %11 unwind label %73

11:                                               ; preds = %3
  %12 = icmp ne i32 %10, 0
  br i1 %12, label %13, label %28

13:                                               ; preds = %11
  %14 = load i64, ptr %5, align 8
  %15 = load ptr, ptr %4, align 8
  %16 = getelementptr inbounds nuw %struct.PyVarObject, ptr %15, i32 0, i32 1
  %17 = load i64, ptr %16, align 8
  %18 = icmp eq i64 %14, %17
  br i1 %18, label %19, label %27

19:                                               ; preds = %13
  %20 = load ptr, ptr %4, align 8
  %21 = getelementptr inbounds nuw %struct.PyTupleObject, ptr %20, i32 0, i32 1
  %22 = getelementptr inbounds [1 x ptr], ptr %21, i64 0, i64 0
  store ptr %22, ptr %8, align 8
  %23 = load i64, ptr %5, align 8
  %24 = icmp eq i64 %23, 0
  br i1 %24, label %25, label %26

25:                                               ; preds = %19
  store ptr inttoptr (i64 1 to ptr), ptr %8, align 8
  br label %26

26:                                               ; preds = %25, %19
  br label %27

27:                                               ; preds = %26, %13
  br label %69

28:                                               ; preds = %11
  %29 = load ptr, ptr %4, align 8
  %30 = invoke noundef i32 @_ZL11_Py_IS_TYPEPK7_objectPK11_typeobject(ptr noundef %29, ptr noundef @PyList_Type)
          to label %31 unwind label %73

31:                                               ; preds = %28
  %32 = icmp ne i32 %30, 0
  br i1 %32, label %33, label %48

33:                                               ; preds = %31
  %34 = load i64, ptr %5, align 8
  %35 = load ptr, ptr %4, align 8
  %36 = getelementptr inbounds nuw %struct.PyVarObject, ptr %35, i32 0, i32 1
  %37 = load i64, ptr %36, align 8
  %38 = icmp eq i64 %34, %37
  br i1 %38, label %39, label %47

39:                                               ; preds = %33
  %40 = load ptr, ptr %4, align 8
  %41 = getelementptr inbounds nuw %struct.PyListObject, ptr %40, i32 0, i32 1
  %42 = load ptr, ptr %41, align 8
  store ptr %42, ptr %8, align 8
  %43 = load i64, ptr %5, align 8
  %44 = icmp eq i64 %43, 0
  br i1 %44, label %45, label %46

45:                                               ; preds = %39
  store ptr inttoptr (i64 1 to ptr), ptr %8, align 8
  br label %46

46:                                               ; preds = %45, %39
  br label %47

47:                                               ; preds = %46, %33
  br label %68

48:                                               ; preds = %31
  %49 = load ptr, ptr %4, align 8
  %50 = invoke i32 @PySequence_Check(ptr noundef %49)
          to label %51 unwind label %73

51:                                               ; preds = %48
  %52 = icmp ne i32 %50, 0
  br i1 %52, label %53, label %67

53:                                               ; preds = %51
  %54 = load ptr, ptr %4, align 8
  %55 = invoke ptr @PySequence_Tuple(ptr noundef %54)
          to label %56 unwind label %73

56:                                               ; preds = %53
  store ptr %55, ptr %7, align 8
  %57 = load ptr, ptr %7, align 8
  %58 = icmp ne ptr %57, null
  br i1 %58, label %59, label %64

59:                                               ; preds = %56
  %60 = load ptr, ptr %7, align 8
  %61 = load i64, ptr %5, align 8
  %62 = load ptr, ptr %6, align 8
  %63 = call noundef ptr @_ZN8nanobind6detail17seq_get_with_sizeEP7_objectmPS2_(ptr noundef %60, i64 noundef %61, ptr noundef %62) #20
  store ptr %63, ptr %8, align 8
  br label %66

64:                                               ; preds = %56
  invoke void @PyErr_Clear()
          to label %65 unwind label %73

65:                                               ; preds = %64
  br label %66

66:                                               ; preds = %65, %59
  br label %67

67:                                               ; preds = %66, %51
  br label %68

68:                                               ; preds = %67, %47
  br label %69

69:                                               ; preds = %68, %27
  %70 = load ptr, ptr %7, align 8
  %71 = load ptr, ptr %6, align 8
  store ptr %70, ptr %71, align 8
  %72 = load ptr, ptr %8, align 8
  call void @llvm.lifetime.end.p0(i64 8, ptr %8) #20
  call void @llvm.lifetime.end.p0(i64 8, ptr %7) #20
  ret ptr %72

73:                                               ; preds = %64, %53, %48, %28, %3
  %74 = landingpad { ptr, i32 }
          catch ptr null
  %75 = extractvalue { ptr, i32 } %74, 0
  call void @__clang_call_terminate(ptr %75) #22
  unreachable
}