; Function Attrs: mustprogress nounwind uwtable
define noundef ptr @_ZN8nanobind6detail17seq_get_with_sizeEP7_objectmPS2_(ptr noundef %0, i64 noundef %1, ptr noundef writeonly captures(none) %2) local_unnamed_addr #9 personality ptr @__gxx_personality_v0 {
  %4 = getelementptr i8, ptr %0, i64 8
  %.val26 = load ptr, ptr %4, align 8
  %.not = icmp eq ptr %.val26, @PyTuple_Type
  br i1 %.not, label %5, label %12

5:                                                ; preds = %3
  %6 = getelementptr inbounds nuw i8, ptr %0, i64 16
  %7 = load i64, ptr %6, align 8
  %8 = icmp eq i64 %1, %7
  br i1 %8, label %9, label %30

9:                                                ; preds = %5
  %10 = getelementptr inbounds nuw i8, ptr %0, i64 24
  %11 = icmp eq i64 %1, 0
  %spec.store.select = select i1 %11, ptr inttoptr (i64 1 to ptr), ptr %10
  br label %30

12:                                               ; preds = %3
  %.not27 = icmp eq ptr %.val26, @PyList_Type
  br i1 %.not27, label %13, label %21

13:                                               ; preds = %12
  %14 = getelementptr inbounds nuw i8, ptr %0, i64 16
  %15 = load i64, ptr %14, align 8
  %16 = icmp eq i64 %1, %15
  br i1 %16, label %17, label %30

17:                                               ; preds = %13
  %18 = getelementptr inbounds nuw i8, ptr %0, i64 24
  %19 = load ptr, ptr %18, align 8
  %20 = icmp eq i64 %1, 0
  %spec.store.select1 = select i1 %20, ptr inttoptr (i64 1 to ptr), ptr %19
  br label %30

21:                                               ; preds = %12
  %22 = invoke i32 @PySequence_Check(ptr noundef nonnull %0)
          to label %23 unwind label %31

23:                                               ; preds = %21
  %.not24 = icmp eq i32 %22, 0
  br i1 %.not24, label %30, label %24

24:                                               ; preds = %23
  %25 = invoke ptr @PySequence_Tuple(ptr noundef nonnull %0)
          to label %26 unwind label %31

26:                                               ; preds = %24
  %.not25 = icmp eq ptr %25, null
  br i1 %.not25, label %29, label %27

27:                                               ; preds = %26
  %28 = tail call noundef ptr @_ZN8nanobind6detail17seq_get_with_sizeEP7_objectmPS2_(ptr noundef nonnull %25, i64 noundef %1, ptr noundef %2) #27
  br label %30

29:                                               ; preds = %26
  invoke void @PyErr_Clear()
          to label %30 unwind label %31

30:                                               ; preds = %17, %13, %27, %29, %23, %5, %9
  %.019 = phi ptr [ null, %9 ], [ null, %5 ], [ null, %17 ], [ null, %13 ], [ %25, %27 ], [ null, %29 ], [ null, %23 ]
  %.0 = phi ptr [ %spec.store.select, %9 ], [ null, %5 ], [ %spec.store.select1, %17 ], [ null, %13 ], [ %28, %27 ], [ null, %29 ], [ null, %23 ]
  store ptr %.019, ptr %2, align 8
  ret ptr %.0

31:                                               ; preds = %29, %24, %21
  %32 = landingpad { ptr, i32 }
          catch ptr null
  %33 = extractvalue { ptr, i32 } %32, 0
  tail call void @__clang_call_terminate(ptr %33) #29
  unreachable
}